; ModuleID = '27/2196.c'
source_filename = "27/2196.c"
target datalayout = "e-m:e-p270:32:32-p271:32:32-p272:64:64-i64:64-f80:128-n8:16:32:64-S128"
target triple = "x86_64-pc-linux-gnu"

@.str = private unnamed_addr constant [3 x i8] c"%d\00", align 1
@.str.1 = private unnamed_addr constant [12 x i8] c"%lf %lf %lf\00", align 1
@.str.2 = private unnamed_addr constant [19 x i8] c"x1=%.5lf;x2=%.5lf\0A\00", align 1
@.str.3 = private unnamed_addr constant [33 x i8] c"x1=%.5lf+%.5lfi;x2=%.5lf-%.5lfi\0A\00", align 1
@.str.4 = private unnamed_addr constant [13 x i8] c"x1=x2=%.5lf\0A\00", align 1

; Function Attrs: noinline nounwind uwtable
define dso_local i32 @main(i32 %0, i8** %1) #0 {
  %3 = alloca i32, align 4
  %4 = alloca i32, align 4
  %5 = alloca i8**, align 8
  %6 = alloca i32, align 4
  %7 = alloca i32, align 4
  %8 = alloca double, align 8
  %9 = alloca double, align 8
  %10 = alloca double, align 8
  %11 = alloca double, align 8
  %12 = alloca double, align 8
  %13 = alloca double, align 8
  %14 = alloca double, align 8
  store i32 0, i32* %3, align 4
  store i32 %0, i32* %4, align 4
  store i8** %1, i8*** %5, align 8
  %15 = call i32 (i8*, ...) @__isoc99_scanf(i8* getelementptr inbounds ([3 x i8], [3 x i8]* @.str, i64 0, i64 0), i32* %6)
  store i32 0, i32* %7, align 4
  br label %16

16:                                               ; preds = %160, %2
  %17 = load i32, i32* %7, align 4
  %18 = load i32, i32* %6, align 4
  %19 = icmp slt i32 %17, %18
  br i1 %19, label %20, label %163

20:                                               ; preds = %16
  %21 = call i32 (i8*, ...) @__isoc99_scanf(i8* getelementptr inbounds ([12 x i8], [12 x i8]* @.str.1, i64 0, i64 0), double* %8, double* %9, double* %10)
  %22 = load double, double* %9, align 8
  %23 = load double, double* %9, align 8
  %24 = fmul double %22, %23
  %25 = load double, double* %8, align 8
  %26 = fmul double 4.000000e+00, %25
  %27 = load double, double* %10, align 8
  %28 = fmul double %26, %27
  %29 = fsub double %24, %28
  %30 = fcmp ogt double %29, 0.000000e+00
  br i1 %30, label %31, label %65

31:                                               ; preds = %20
  %32 = load double, double* %9, align 8
  %33 = fneg double %32
  %34 = load double, double* %9, align 8
  %35 = load double, double* %9, align 8
  %36 = fmul double %34, %35
  %37 = load double, double* %8, align 8
  %38 = fmul double 4.000000e+00, %37
  %39 = load double, double* %10, align 8
  %40 = fmul double %38, %39
  %41 = fsub double %36, %40
  %42 = call double @sqrt(double %41) #3
  %43 = fadd double %33, %42
  %44 = load double, double* %8, align 8
  %45 = fmul double 2.000000e+00, %44
  %46 = fdiv double %43, %45
  store double %46, double* %11, align 8
  %47 = load double, double* %9, align 8
  %48 = fneg double %47
  %49 = load double, double* %9, align 8
  %50 = load double, double* %9, align 8
  %51 = fmul double %49, %50
  %52 = load double, double* %8, align 8
  %53 = fmul double 4.000000e+00, %52
  %54 = load double, double* %10, align 8
  %55 = fmul double %53, %54
  %56 = fsub double %51, %55
  %57 = call double @sqrt(double %56) #3
  %58 = fsub double %48, %57
  %59 = load double, double* %8, align 8
  %60 = fmul double 2.000000e+00, %59
  %61 = fdiv double %58, %60
  store double %61, double* %12, align 8
  %62 = load double, double* %11, align 8
  %63 = load double, double* %12, align 8
  %64 = call i32 (i8*, ...) @printf(i8* getelementptr inbounds ([19 x i8], [19 x i8]* @.str.2, i64 0, i64 0), double %62, double %63)
  br label %65

65:                                               ; preds = %31, %20
  %66 = load double, double* %9, align 8
  %67 = load double, double* %9, align 8
  %68 = fmul double %66, %67
  %69 = load double, double* %8, align 8
  %70 = fmul double 4.000000e+00, %69
  %71 = load double, double* %10, align 8
  %72 = fmul double %70, %71
  %73 = fsub double %68, %72
  %74 = fcmp olt double %73, 0.000000e+00
  br i1 %74, label %75, label %141

75:                                               ; preds = %65
  %76 = load double, double* %9, align 8
  %77 = fcmp une double %76, 0.000000e+00
  br i1 %77, label %78, label %114

78:                                               ; preds = %75
  %79 = load double, double* %9, align 8
  %80 = fneg double %79
  %81 = load double, double* %8, align 8
  %82 = fmul double 2.000000e+00, %81
  %83 = fdiv double %80, %82
  %84 = load double, double* %8, align 8
  %85 = fmul double 4.000000e+00, %84
  %86 = load double, double* %10, align 8
  %87 = fmul double %85, %86
  %88 = load double, double* %9, align 8
  %89 = load double, double* %9, align 8
  %90 = fmul double %88, %89
  %91 = fsub double %87, %90
  %92 = call double @sqrt(double %91) #3
  %93 = load double, double* %8, align 8
  %94 = fmul double 2.000000e+00, %93
  %95 = fdiv double %92, %94
  %96 = load double, double* %9, align 8
  %97 = fneg double %96
  %98 = load double, double* %8, align 8
  %99 = fmul double 2.000000e+00, %98
  %100 = fdiv double %97, %99
  %101 = load double, double* %8, align 8
  %102 = fmul double 4.000000e+00, %101
  %103 = load double, double* %10, align 8
  %104 = fmul double %102, %103
  %105 = load double, double* %9, align 8
  %106 = load double, double* %9, align 8
  %107 = fmul double %105, %106
  %108 = fsub double %104, %107
  %109 = call double @sqrt(double %108) #3
  %110 = load double, double* %8, align 8
  %111 = fmul double 2.000000e+00, %110
  %112 = fdiv double %109, %111
  %113 = call i32 (i8*, ...) @printf(i8* getelementptr inbounds ([33 x i8], [33 x i8]* @.str.3, i64 0, i64 0), double %83, double %95, double %100, double %112)
  br label %140

114:                                              ; preds = %75
  %115 = load double, double* %8, align 8
  %116 = fmul double 4.000000e+00, %115
  %117 = load double, double* %10, align 8
  %118 = fmul double %116, %117
  %119 = load double, double* %9, align 8
  %120 = load double, double* %9, align 8
  %121 = fmul double %119, %120
  %122 = fsub double %118, %121
  %123 = call double @sqrt(double %122) #3
  %124 = load double, double* %8, align 8
  %125 = fmul double 2.000000e+00, %124
  %126 = fdiv double %123, %125
  %127 = load double, double* %8, align 8
  %128 = fmul double 4.000000e+00, %127
  %129 = load double, double* %10, align 8
  %130 = fmul double %128, %129
  %131 = load double, double* %9, align 8
  %132 = load double, double* %9, align 8
  %133 = fmul double %131, %132
  %134 = fsub double %130, %133
  %135 = call double @sqrt(double %134) #3
  %136 = load double, double* %8, align 8
  %137 = fmul double 2.000000e+00, %136
  %138 = fdiv double %135, %137
  %139 = call i32 (i8*, ...) @printf(i8* getelementptr inbounds ([33 x i8], [33 x i8]* @.str.3, i64 0, i64 0), double 0.000000e+00, double %126, double 0.000000e+00, double %138)
  br label %140

140:                                              ; preds = %114, %78
  br label %141

141:                                              ; preds = %140, %65
  %142 = load double, double* %9, align 8
  %143 = load double, double* %9, align 8
  %144 = fmul double %142, %143
  %145 = load double, double* %8, align 8
  %146 = fmul double 4.000000e+00, %145
  %147 = load double, double* %10, align 8
  %148 = fmul double %146, %147
  %149 = fsub double %144, %148
  %150 = fcmp oeq double %149, 0.000000e+00
  br i1 %150, label %151, label %159

151:                                              ; preds = %141
  %152 = load double, double* %9, align 8
  %153 = fneg double %152
  %154 = load double, double* %8, align 8
  %155 = fmul double 2.000000e+00, %154
  %156 = fdiv double %153, %155
  store double %156, double* %14, align 8
  store double %156, double* %13, align 8
  %157 = load double, double* %13, align 8
  %158 = call i32 (i8*, ...) @printf(i8* getelementptr inbounds ([13 x i8], [13 x i8]* @.str.4, i64 0, i64 0), double %157)
  br label %159

159:                                              ; preds = %151, %141
  br label %160

160:                                              ; preds = %159
  %161 = load i32, i32* %7, align 4
  %162 = add nsw i32 %161, 1
  store i32 %162, i32* %7, align 4
  br label %16

163:                                              ; preds = %16
  ret i32 0
}

declare dso_local i32 @__isoc99_scanf(i8*, ...) #1

; Function Attrs: nounwind
declare dso_local double @sqrt(double) #2

declare dso_local i32 @printf(i8*, ...) #1


!llvm.module.flags = !{!0}
!llvm.ident = !{!1}

!0 = !{i32 1, !"wchar_size", i32 4}
!1 = !{!"clang version 10.0.0-4ubuntu1 "}
